target datalayout = "e-m:e-p270:32:32-p271:32:32-p272:64:64-i64:64-i128:128-f80:128-n8:16:32:64-S128"
target triple = "x86_64-pc-linux-gnu"

%struct.mbedtls_mpi = type { ptr, i16, i16 }
%struct.mbedtls_rsa_context = type { i32, i64, %struct.mbedtls_mpi, %struct.mbedtls_mpi, %struct.mbedtls_mpi, %struct.mbedtls_mpi, %struct.mbedtls_mpi, %struct.mbedtls_mpi, %struct.mbedtls_mpi, %struct.mbedtls_mpi, %struct.mbedtls_mpi, %struct.mbedtls_mpi, %struct.mbedtls_mpi, %struct.mbedtls_mpi, %struct.mbedtls_mpi, i32, i32 }

@.str = private unnamed_addr constant [117 x i8] c"generated/home/dtcxzyw/WorkSpace/Projects/compilers/llvm-opt-benchmark/bench/lief/bench_build/mbed_src/library/rsa.c\00", align 1

; Function Attrs: inlinehint nounwind uwtable
define internal i32 @mbedtls_error_add(i32 noundef %0, i32 noundef %1, ptr noundef %2, i32 noundef %3) #3 {
  %5 = alloca i32, align 4
  %6 = alloca i32, align 4
  %7 = alloca ptr, align 8
  %8 = alloca i32, align 4
  store i32 %0, ptr %5, align 4, !tbaa !12
  store i32 %1, ptr %6, align 4, !tbaa !12
  store ptr %2, ptr %7, align 8, !tbaa !8
  store i32 %3, ptr %8, align 4, !tbaa !12
  %9 = load i32, ptr %5, align 4, !tbaa !12
  %10 = load i32, ptr %6, align 4, !tbaa !12
  %11 = add nsw i32 %9, %10
  ret i32 %11
}

; Function Attrs: inlinehint nounwind uwtable
define internal zeroext i8 @mbedtls_md_get_size_from_type(i32 noundef %0) #3 {
  %2 = alloca i32, align 4
  store i32 %0, ptr %2, align 4, !tbaa !12
  %3 = load i32, ptr %2, align 4, !tbaa !12
  %4 = call ptr @mbedtls_md_info_from_type(i32 noundef %3)
  %5 = call zeroext i8 @mbedtls_md_get_size(ptr noundef %4)
  ret i8 %5
}

; Function Attrs: nounwind uwtable
define internal i32 @rsa_rsassa_pss_sign_no_mode_check(ptr noundef %0, ptr noundef %1, ptr noundef %2, i32 noundef %3, i32 noundef %4, ptr noundef %5, i32 noundef %6, ptr noundef %7) #0 {
  %9 = alloca i32, align 4
  %10 = alloca ptr, align 8
  %11 = alloca ptr, align 8
  %12 = alloca ptr, align 8
  %13 = alloca i32, align 4
  %14 = alloca i32, align 4
  %15 = alloca ptr, align 8
  %16 = alloca i32, align 4
  %17 = alloca ptr, align 8
  %18 = alloca i64, align 8
  %19 = alloca ptr, align 8
  %20 = alloca ptr, align 8
  %21 = alloca i64, align 8
  %22 = alloca i64, align 8
  %23 = alloca i64, align 8
  %24 = alloca i64, align 8
  %25 = alloca i32, align 4
  %26 = alloca i64, align 8
  %27 = alloca i32, align 4
  %28 = alloca i32, align 4
  %29 = alloca i64, align 8
  store ptr %0, ptr %10, align 8, !tbaa !3
  store ptr %1, ptr %11, align 8, !tbaa !26
  store ptr %2, ptr %12, align 8, !tbaa !26
  store i32 %3, ptr %13, align 4, !tbaa !12
  store i32 %4, ptr %14, align 4, !tbaa !12
  store ptr %5, ptr %15, align 8, !tbaa !8
  store i32 %6, ptr %16, align 4, !tbaa !12
  store ptr %7, ptr %17, align 8, !tbaa !8
  call void @llvm.lifetime.start.p0(i64 8, ptr %18) #9
  call void @llvm.lifetime.start.p0(i64 8, ptr %19) #9
  %30 = load ptr, ptr %17, align 8, !tbaa !8
  store ptr %30, ptr %19, align 8, !tbaa !8
  call void @llvm.lifetime.start.p0(i64 8, ptr %20) #9
  store ptr null, ptr %20, align 8, !tbaa !8
  call void @llvm.lifetime.start.p0(i64 8, ptr %21) #9
  call void @llvm.lifetime.start.p0(i64 8, ptr %22) #9
  call void @llvm.lifetime.start.p0(i64 8, ptr %23) #9
  call void @llvm.lifetime.start.p0(i64 8, ptr %24) #9
  store i64 0, ptr %24, align 8, !tbaa !10
  call void @llvm.lifetime.start.p0(i64 4, ptr %25) #9
  store i32 -110, ptr %25, align 4, !tbaa !12
  call void @llvm.lifetime.start.p0(i64 8, ptr %26) #9
  call void @llvm.lifetime.start.p0(i64 4, ptr %27) #9
  %31 = load i32, ptr %13, align 4, !tbaa !12
  %32 = icmp ne i32 %31, 0
  br i1 %32, label %36, label %33

33:                                               ; preds = %8
  %34 = load i32, ptr %14, align 4, !tbaa !12
  %35 = icmp ne i32 %34, 0
  br i1 %35, label %36, label %40

36:                                               ; preds = %33, %8
  %37 = load ptr, ptr %15, align 8, !tbaa !8
  %38 = icmp eq ptr %37, null
  br i1 %38, label %39, label %40

39:                                               ; preds = %36
  store i32 -16512, ptr %9, align 4
  store i32 1, ptr %28, align 4
  br label %221

40:                                               ; preds = %36, %33
  %41 = load ptr, ptr %11, align 8, !tbaa !26
  %42 = icmp eq ptr %41, null
  br i1 %42, label %43, label %44

43:                                               ; preds = %40
  store i32 -16512, ptr %9, align 4
  store i32 1, ptr %28, align 4
  br label %221

44:                                               ; preds = %40
  %45 = load ptr, ptr %10, align 8, !tbaa !3
  %46 = getelementptr inbounds nuw %struct.mbedtls_rsa_context, ptr %45, i32 0, i32 1
  %47 = load i64, ptr %46, align 8, !tbaa !19
  store i64 %47, ptr %18, align 8, !tbaa !10
  %48 = load i32, ptr %13, align 4, !tbaa !12
  %49 = icmp ne i32 %48, 0
  br i1 %49, label %50, label %67

50:                                               ; preds = %44
  call void @llvm.lifetime.start.p0(i64 8, ptr %29) #9
  %51 = load i32, ptr %13, align 4, !tbaa !12
  %52 = call zeroext i8 @mbedtls_md_get_size_from_type(i32 noundef %51)
  %53 = zext i8 %52 to i64
  store i64 %53, ptr %29, align 8, !tbaa !10
  %54 = load i64, ptr %29, align 8, !tbaa !10
  %55 = icmp eq i64 %54, 0
  br i1 %55, label %56, label %57

56:                                               ; preds = %50
  store i32 -16512, ptr %9, align 4
  store i32 1, ptr %28, align 4
  br label %64

57:                                               ; preds = %50
  %58 = load i32, ptr %14, align 4, !tbaa !12
  %59 = zext i32 %58 to i64
  %60 = load i64, ptr %29, align 8, !tbaa !10
  %61 = icmp ne i64 %59, %60
  br i1 %61, label %62, label %63

62:                                               ; preds = %57
  store i32 -16512, ptr %9, align 4
  store i32 1, ptr %28, align 4
  br label %64

63:                                               ; preds = %57
  store i32 0, ptr %28, align 4
  br label %64

64:                                               ; preds = %63, %62, %56
  call void @llvm.lifetime.end.p0(i64 8, ptr %29) #9
  %65 = load i32, ptr %28, align 4
  switch i32 %65, label %221 [
    i32 0, label %66
  ]

66:                                               ; preds = %64
  br label %67

67:                                               ; preds = %66, %44
  %68 = load ptr, ptr %10, align 8, !tbaa !3
  %69 = getelementptr inbounds nuw %struct.mbedtls_rsa_context, ptr %68, i32 0, i32 16
  %70 = load i32, ptr %69, align 4, !tbaa !25
  store i32 %70, ptr %27, align 4, !tbaa !12
  %71 = load i32, ptr %27, align 4, !tbaa !12
  %72 = icmp eq i32 %71, 0
  br i1 %72, label %73, label %75

73:                                               ; preds = %67
  %74 = load i32, ptr %13, align 4, !tbaa !12
  store i32 %74, ptr %27, align 4, !tbaa !12
  br label %75

75:                                               ; preds = %73, %67
  %76 = load i32, ptr %27, align 4, !tbaa !12
  %77 = call zeroext i8 @mbedtls_md_get_size_from_type(i32 noundef %76)
  %78 = zext i8 %77 to i64
  store i64 %78, ptr %23, align 8, !tbaa !10
  %79 = load i64, ptr %23, align 8, !tbaa !10
  %80 = icmp eq i64 %79, 0
  br i1 %80, label %81, label %82

81:                                               ; preds = %75
  store i32 -16512, ptr %9, align 4
  store i32 1, ptr %28, align 4
  br label %221

82:                                               ; preds = %75
  %83 = load i32, ptr %16, align 4, !tbaa !12
  %84 = icmp eq i32 %83, -1
  br i1 %84, label %85, label %111

85:                                               ; preds = %82
  %86 = load i64, ptr %23, align 8, !tbaa !10
  %87 = sub i64 %86, 2
  store i64 %87, ptr %22, align 8, !tbaa !10
  %88 = load i64, ptr %18, align 8, !tbaa !10
  %89 = load i64, ptr %23, align 8, !tbaa !10
  %90 = load i64, ptr %22, align 8, !tbaa !10
  %91 = add i64 %89, %90
  %92 = add i64 %91, 2
  %93 = icmp ult i64 %88, %92
  br i1 %93, label %94, label %95

94:                                               ; preds = %85
  store i32 -16512, ptr %9, align 4
  store i32 1, ptr %28, align 4
  br label %221

95:                                               ; preds = %85
  %96 = load i64, ptr %18, align 8, !tbaa !10
  %97 = load i64, ptr %23, align 8, !tbaa !10
  %98 = load i64, ptr %23, align 8, !tbaa !10
  %99 = add i64 %97, %98
  %100 = add i64 %99, 2
  %101 = icmp uge i64 %96, %100
  br i1 %101, label %102, label %104

102:                                              ; preds = %95
  %103 = load i64, ptr %23, align 8, !tbaa !10
  store i64 %103, ptr %21, align 8, !tbaa !10
  br label %109

104:                                              ; preds = %95
  %105 = load i64, ptr %18, align 8, !tbaa !10
  %106 = load i64, ptr %23, align 8, !tbaa !10
  %107 = sub i64 %105, %106
  %108 = sub i64 %107, 2
  store i64 %108, ptr %21, align 8, !tbaa !10
  br label %109

109:                                              ; preds = %104, %102
  br label %110

110:                                              ; preds = %109
  br label %127

111:                                              ; preds = %82
  %112 = load i32, ptr %16, align 4, !tbaa !12
  %113 = icmp slt i32 %112, 0
  br i1 %113, label %122, label %114

114:                                              ; preds = %111
  %115 = load i32, ptr %16, align 4, !tbaa !12
  %116 = sext i32 %115 to i64
  %117 = load i64, ptr %23, align 8, !tbaa !10
  %118 = add i64 %116, %117
  %119 = add i64 %118, 2
  %120 = load i64, ptr %18, align 8, !tbaa !10
  %121 = icmp ugt i64 %119, %120
  br i1 %121, label %122, label %123

122:                                              ; preds = %114, %111
  store i32 -16512, ptr %9, align 4
  store i32 1, ptr %28, align 4
  br label %221

123:                                              ; preds = %114
  %124 = load i32, ptr %16, align 4, !tbaa !12
  %125 = sext i32 %124 to i64
  store i64 %125, ptr %21, align 8, !tbaa !10
  br label %126

126:                                              ; preds = %123
  br label %127

127:                                              ; preds = %126, %110
  %128 = load ptr, ptr %17, align 8, !tbaa !8
  %129 = load i64, ptr %18, align 8, !tbaa !10
  call void @llvm.memset.p0.i64(ptr align 1 %128, i8 0, i64 %129, i1 false)
  %130 = load ptr, ptr %10, align 8, !tbaa !3
  %131 = getelementptr inbounds nuw %struct.mbedtls_rsa_context, ptr %130, i32 0, i32 2
  %132 = call i64 @mbedtls_mpi_bitlen(ptr noundef %131)
  %133 = sub i64 %132, 1
  store i64 %133, ptr %26, align 8, !tbaa !10
  %134 = load i64, ptr %18, align 8, !tbaa !10
  %135 = load i64, ptr %23, align 8, !tbaa !10
  %136 = sub i64 %134, %135
  %137 = load i64, ptr %21, align 8, !tbaa !10
  %138 = sub i64 %136, %137
  %139 = sub i64 %138, 2
  %140 = load ptr, ptr %19, align 8, !tbaa !8
  %141 = getelementptr inbounds nuw i8, ptr %140, i64 %139
  store ptr %141, ptr %19, align 8, !tbaa !8
  %142 = load ptr, ptr %19, align 8, !tbaa !8
  %143 = getelementptr inbounds nuw i8, ptr %142, i32 1
  store ptr %143, ptr %19, align 8, !tbaa !8
  store i8 1, ptr %142, align 1, !tbaa !33
  %144 = load ptr, ptr %19, align 8, !tbaa !8
  store ptr %144, ptr %20, align 8, !tbaa !8
  %145 = load ptr, ptr %11, align 8, !tbaa !26
  %146 = load ptr, ptr %12, align 8, !tbaa !26
  %147 = load ptr, ptr %20, align 8, !tbaa !8
  %148 = load i64, ptr %21, align 8, !tbaa !10
  %149 = call i32 %145(ptr noundef %146, ptr noundef %147, i64 noundef %148)
  store i32 %149, ptr %25, align 4, !tbaa !12
  %150 = icmp ne i32 %149, 0
  br i1 %150, label %151, label %154

151:                                              ; preds = %127
  %152 = load i32, ptr %25, align 4, !tbaa !12
  %153 = call i32 @mbedtls_error_add(i32 noundef -17536, i32 noundef %152, ptr noundef @.str, i32 noundef 2192)
  store i32 %153, ptr %9, align 4
  store i32 1, ptr %28, align 4
  br label %221

154:                                              ; preds = %127
  %155 = load i64, ptr %21, align 8, !tbaa !10
  %156 = load ptr, ptr %19, align 8, !tbaa !8
  %157 = getelementptr inbounds nuw i8, ptr %156, i64 %155
  store ptr %157, ptr %19, align 8, !tbaa !8
  %158 = load ptr, ptr %15, align 8, !tbaa !8
  %159 = load i32, ptr %14, align 4, !tbaa !12
  %160 = zext i32 %159 to i64
  %161 = load ptr, ptr %20, align 8, !tbaa !8
  %162 = load i64, ptr %21, align 8, !tbaa !10
  %163 = load ptr, ptr %19, align 8, !tbaa !8
  %164 = load i32, ptr %27, align 4, !tbaa !12
  %165 = call i32 @hash_mprime(ptr noundef %158, i64 noundef %160, ptr noundef %161, i64 noundef %162, ptr noundef %163, i32 noundef %164)
  store i32 %165, ptr %25, align 4, !tbaa !12
  %166 = load i32, ptr %25, align 4, !tbaa !12
  %167 = icmp ne i32 %166, 0
  br i1 %167, label %168, label %170

168:                                              ; preds = %154
  %169 = load i32, ptr %25, align 4, !tbaa !12
  store i32 %169, ptr %9, align 4
  store i32 1, ptr %28, align 4
  br label %221

170:                                              ; preds = %154
  %171 = load i64, ptr %26, align 8, !tbaa !10
  %172 = urem i64 %171, 8
  %173 = icmp eq i64 %172, 0
  br i1 %173, label %174, label %175

174:                                              ; preds = %170
  store i64 1, ptr %24, align 8, !tbaa !10
  br label %175

175:                                              ; preds = %174, %170
  %176 = load ptr, ptr %17, align 8, !tbaa !8
  %177 = load i64, ptr %24, align 8, !tbaa !10
  %178 = getelementptr inbounds nuw i8, ptr %176, i64 %177
  %179 = load i64, ptr %18, align 8, !tbaa !10
  %180 = load i64, ptr %23, align 8, !tbaa !10
  %181 = sub i64 %179, %180
  %182 = sub i64 %181, 1
  %183 = load i64, ptr %24, align 8, !tbaa !10
  %184 = sub i64 %182, %183
  %185 = load ptr, ptr %19, align 8, !tbaa !8
  %186 = load i64, ptr %23, align 8, !tbaa !10
  %187 = load i32, ptr %27, align 4, !tbaa !12
  %188 = call i32 @mgf_mask(ptr noundef %178, i64 noundef %184, ptr noundef %185, i64 noundef %186, i32 noundef %187)
  store i32 %188, ptr %25, align 4, !tbaa !12
  %189 = load i32, ptr %25, align 4, !tbaa !12
  %190 = icmp ne i32 %189, 0
  br i1 %190, label %191, label %193

191:                                              ; preds = %175
  %192 = load i32, ptr %25, align 4, !tbaa !12
  store i32 %192, ptr %9, align 4
  store i32 1, ptr %28, align 4
  br label %221

193:                                              ; preds = %175
  %194 = load ptr, ptr %10, align 8, !tbaa !3
  %195 = getelementptr inbounds nuw %struct.mbedtls_rsa_context, ptr %194, i32 0, i32 2
  %196 = call i64 @mbedtls_mpi_bitlen(ptr noundef %195)
  %197 = sub i64 %196, 1
  store i64 %197, ptr %26, align 8, !tbaa !10
  %198 = load i64, ptr %18, align 8, !tbaa !10
  %199 = mul i64 %198, 8
  %200 = load i64, ptr %26, align 8, !tbaa !10
  %201 = sub i64 %199, %200
  %202 = trunc i64 %201 to i32
  %203 = ashr i32 255, %202
  %204 = load ptr, ptr %17, align 8, !tbaa !8
  %205 = getelementptr inbounds i8, ptr %204, i64 0
  %206 = load i8, ptr %205, align 1, !tbaa !33
  %207 = zext i8 %206 to i32
  %208 = and i32 %207, %203
  %209 = trunc i32 %208 to i8
  store i8 %209, ptr %205, align 1, !tbaa !33
  %210 = load i64, ptr %23, align 8, !tbaa !10
  %211 = load ptr, ptr %19, align 8, !tbaa !8
  %212 = getelementptr inbounds nuw i8, ptr %211, i64 %210
  store ptr %212, ptr %19, align 8, !tbaa !8
  %213 = load ptr, ptr %19, align 8, !tbaa !8
  %214 = getelementptr inbounds nuw i8, ptr %213, i32 1
  store ptr %214, ptr %19, align 8, !tbaa !8
  store i8 -68, ptr %213, align 1, !tbaa !33
  %215 = load ptr, ptr %10, align 8, !tbaa !3
  %216 = load ptr, ptr %11, align 8, !tbaa !26
  %217 = load ptr, ptr %12, align 8, !tbaa !26
  %218 = load ptr, ptr %17, align 8, !tbaa !8
  %219 = load ptr, ptr %17, align 8, !tbaa !8
  %220 = call i32 @mbedtls_rsa_private(ptr noundef %215, ptr noundef %216, ptr noundef %217, ptr noundef %218, ptr noundef %219)
  store i32 %220, ptr %9, align 4
  store i32 1, ptr %28, align 4
  br label %221

221:                                              ; preds = %193, %191, %168, %151, %122, %94, %81, %64, %43, %39
  call void @llvm.lifetime.end.p0(i64 4, ptr %27) #9
  call void @llvm.lifetime.end.p0(i64 8, ptr %26) #9
  call void @llvm.lifetime.end.p0(i64 4, ptr %25) #9
  call void @llvm.lifetime.end.p0(i64 8, ptr %24) #9
  call void @llvm.lifetime.end.p0(i64 8, ptr %23) #9
  call void @llvm.lifetime.end.p0(i64 8, ptr %22) #9
  call void @llvm.lifetime.end.p0(i64 8, ptr %21) #9
  call void @llvm.lifetime.end.p0(i64 8, ptr %20) #9
  call void @llvm.lifetime.end.p0(i64 8, ptr %19) #9
  call void @llvm.lifetime.end.p0(i64 8, ptr %18) #9
  %222 = load i32, ptr %9, align 4
  ret i32 %222
}