; Function Attrs: nounwind uwtable
define internal fastcc i32 @rsa_rsassa_pss_sign_no_mode_check(ptr noundef %0, ptr noundef %1, ptr noundef %2, i32 noundef %3, i32 noundef %4, ptr noundef %5, i32 noundef %6, ptr noundef %7) unnamed_addr #0 {
  %9 = or i32 %4, %3
  %or.cond = icmp ne i32 %9, 0
  %10 = icmp eq ptr %5, null
  %or.cond3 = and i1 %or.cond, %10
  %11 = icmp eq ptr %1, null
  %or.cond103 = or i1 %11, %or.cond3
  br i1 %or.cond103, label %.critedge, label %12

12:                                               ; preds = %8
  %.not = icmp eq i32 %3, 0
  %13 = getelementptr inbounds nuw i8, ptr %0, i64 8
  %14 = load i64, ptr %13, align 8, !tbaa !12
  br i1 %.not, label %20, label %15

15:                                               ; preds = %12
  %16 = tail call ptr @mbedtls_md_info_from_type(i32 noundef %3) #14
  %17 = tail call zeroext i8 @mbedtls_md_get_size(ptr noundef %16) #14
  %18 = icmp ne i8 %17, 0
  %19 = zext i8 %17 to i32
  %.not97 = icmp eq i32 %4, %19
  %or.cond104 = and i1 %18, %.not97
  br i1 %or.cond104, label %20, label %.critedge

20:                                               ; preds = %15, %12
  %21 = getelementptr inbounds nuw i8, ptr %0, i64 228
  %22 = load i32, ptr %21, align 4, !tbaa !18
  %23 = icmp eq i32 %22, 0
  %spec.select = select i1 %23, i32 %3, i32 %22
  %24 = tail call ptr @mbedtls_md_info_from_type(i32 noundef %spec.select) #14
  %25 = tail call zeroext i8 @mbedtls_md_get_size(ptr noundef %24) #14
  %26 = zext i8 %25 to i64
  %27 = icmp eq i8 %25, 0
  br i1 %27, label %.critedge, label %28

28:                                               ; preds = %20
  %29 = icmp eq i32 %6, -1
  br i1 %29, label %30, label %37

30:                                               ; preds = %28
  %reass.add = shl nuw nsw i64 %26, 1
  %31 = icmp ult i64 %14, %reass.add
  br i1 %31, label %.critedge, label %32

32:                                               ; preds = %30
  %33 = add nuw nsw i64 %reass.add, 2
  %.not98 = icmp ult i64 %14, %33
  br i1 %.not98, label %34, label %44

34:                                               ; preds = %32
  %35 = add nsw i64 %14, -2
  %36 = sub nsw i64 %35, %26
  br label %44

37:                                               ; preds = %28
  %38 = icmp slt i32 %6, 0
  br i1 %38, label %.critedge, label %39

39:                                               ; preds = %37
  %40 = zext nneg i32 %6 to i64
  %41 = add nuw nsw i64 %40, 2
  %42 = add nuw nsw i64 %41, %26
  %43 = icmp ugt i64 %42, %14
  br i1 %43, label %.critedge, label %44

44:                                               ; preds = %39, %32, %34
  %.086 = phi i64 [ %36, %34 ], [ %26, %32 ], [ %40, %39 ]
  tail call void @llvm.memset.p0.i64(ptr align 1 %7, i8 0, i64 %14, i1 false)
  %45 = getelementptr inbounds nuw i8, ptr %0, i64 16
  %46 = tail call i64 @mbedtls_mpi_bitlen(ptr noundef nonnull %45) #14
  %47 = sub i64 %14, %26
  %48 = sub i64 %47, %.086
  %49 = getelementptr i8, ptr %7, i64 %48
  %50 = getelementptr i8, ptr %49, i64 -2
  %51 = getelementptr i8, ptr %49, i64 -1
  store i8 1, ptr %50, align 1, !tbaa !23
  %52 = tail call i32 %1(ptr noundef %2, ptr noundef %51, i64 noundef %.086) #14
  %.not99 = icmp eq i32 %52, 0
  br i1 %.not99, label %55, label %53

53:                                               ; preds = %44
  %54 = add nsw i32 %52, -17536
  br label %.critedge

55:                                               ; preds = %44
  %56 = getelementptr inbounds nuw i8, ptr %51, i64 %.086
  %57 = zext i32 %4 to i64
  %58 = tail call fastcc i32 @hash_mprime(ptr noundef %5, i64 noundef %57, ptr noundef %51, i64 noundef %.086, ptr noundef %56, i32 noundef %spec.select)
  %.not100 = icmp eq i32 %58, 0
  br i1 %.not100, label %59, label %.critedge

59:                                               ; preds = %55
  %60 = and i64 %46, 7
  %61 = icmp eq i64 %60, 1
  %spec.select102 = zext i1 %61 to i64
  %62 = getelementptr inbounds nuw i8, ptr %7, i64 %spec.select102
  %63 = xor i64 %spec.select102, -1
  %64 = add i64 %47, %63
  %65 = tail call fastcc i32 @mgf_mask(ptr noundef %62, i64 noundef %64, ptr noundef %56, i64 noundef %26, i32 noundef %spec.select)
  %.not101 = icmp eq i32 %65, 0
  br i1 %.not101, label %66, label %.critedge

66:                                               ; preds = %59
  %67 = tail call i64 @mbedtls_mpi_bitlen(ptr noundef nonnull %45) #14
  %68 = shl i64 %14, 3
  %.neg106 = or disjoint i64 %68, 1
  %69 = sub i64 %.neg106, %67
  %70 = trunc i64 %69 to i32
  %71 = lshr i32 255, %70
  %72 = load i8, ptr %7, align 1, !tbaa !23
  %73 = trunc nuw i32 %71 to i8
  %74 = and i8 %72, %73
  store i8 %74, ptr %7, align 1, !tbaa !23
  %75 = getelementptr inbounds nuw i8, ptr %56, i64 %26
  store i8 -68, ptr %75, align 1, !tbaa !23
  %76 = tail call i32 @mbedtls_rsa_private(ptr noundef nonnull %0, ptr noundef nonnull %1, ptr noundef %2, ptr noundef nonnull %7, ptr noundef nonnull %7)
  br label %.critedge

.critedge:                                        ; preds = %15, %59, %55, %37, %39, %30, %20, %8, %66, %53
  %.0 = phi i32 [ %54, %53 ], [ %76, %66 ], [ -16512, %8 ], [ -16512, %20 ], [ -16512, %30 ], [ -16512, %39 ], [ -16512, %37 ], [ %58, %55 ], [ %65, %59 ], [ -16512, %15 ]
  ret i32 %.0
}